; Function Attrs: nounwind uwtable
define dso_local range(i32 -30, 1) i32 @archive_read_disk_set_symlink_hybrid(ptr noundef %0) local_unnamed_addr #0 {
  %2 = tail call i32 @__archive_check_magic(ptr noundef %0, i32 noundef 195932357, i32 noundef 32767, ptr noundef nonnull @.str.6) #17
  %3 = icmp eq i32 %2, -30
  br i1 %3, label %setup_symlink_mode.exit, label %4

4:                                                ; preds = %1
  %5 = getelementptr inbounds nuw i8, ptr %0, i64 152
  store i8 72, ptr %5, align 8
  %6 = getelementptr inbounds nuw i8, ptr %0, i64 153
  store i8 1, ptr %6, align 1
  %7 = getelementptr inbounds nuw i8, ptr %0, i64 160
  %8 = load ptr, ptr %7, align 8
  %.not.i = icmp eq ptr %8, null
  br i1 %.not.i, label %setup_symlink_mode.exit, label %9

9:                                                ; preds = %4
  %10 = getelementptr inbounds nuw i8, ptr %8, i64 480
  store i8 72, ptr %10, align 8
  %11 = load i8, ptr %5, align 8
  %12 = load ptr, ptr %7, align 8
  %13 = getelementptr inbounds nuw i8, ptr %12, i64 481
  store i8 %11, ptr %13, align 1
  br label %setup_symlink_mode.exit

setup_symlink_mode.exit:                          ; preds = %9, %4, %1
  %.0 = phi i32 [ -30, %1 ], [ 0, %4 ], [ 0, %9 ]
  ret i32 %.0
}